target datalayout = "e-m:e-p270:32:32-p271:32:32-p272:64:64-i64:64-i128:128-f80:128-n8:16:32:64-S128"
target triple = "x86_64-pc-linux-gnu"

%struct._e_guid_t = type { i32, i16, i16, [8 x i8] }
%struct._GList = type { ptr, ptr, ptr }
%struct.dcom_interface_s = type { ptr, ptr, i32, %struct._e_guid_t, %struct._e_guid_t }

@uuid_null = internal constant %struct._e_guid_t zeroinitializer, align 4
@dcom_interfaces = internal global ptr null, align 8

; Function Attrs: nounwind uwtable
define ptr @dcom_interface_find(ptr noundef %0, ptr noundef %1, ptr noundef %2) #0 {
  %4 = alloca ptr, align 8
  %5 = alloca ptr, align 8
  %6 = alloca ptr, align 8
  %7 = alloca ptr, align 8
  %8 = alloca ptr, align 8
  %9 = alloca ptr, align 8
  store ptr %0, ptr %5, align 8
  store ptr %1, ptr %6, align 8
  store ptr %2, ptr %7, align 8
  %10 = load ptr, ptr %7, align 8
  %11 = call i32 @memcmp(ptr noundef %10, ptr noundef @uuid_null, i64 noundef 16) #8
  %12 = icmp eq i32 %11, 0
  br i1 %12, label %13, label %14

13:                                               ; preds = %3
  store ptr null, ptr %4, align 8
  br label %42

14:                                               ; preds = %3
  %15 = load ptr, ptr @dcom_interfaces, align 8
  store ptr %15, ptr %9, align 8
  br label %16

16:                                               ; preds = %39, %14
  %17 = load ptr, ptr %9, align 8
  %18 = icmp ne ptr %17, null
  br i1 %18, label %19, label %41

19:                                               ; preds = %16
  %20 = load ptr, ptr %9, align 8
  %21 = getelementptr inbounds %struct._GList, ptr %20, i32 0, i32 0
  %22 = load ptr, ptr %21, align 8
  store ptr %22, ptr %8, align 8
  %23 = load ptr, ptr %8, align 8
  %24 = getelementptr inbounds %struct.dcom_interface_s, ptr %23, i32 0, i32 4
  %25 = load ptr, ptr %7, align 8
  %26 = call i32 @memcmp(ptr noundef %24, ptr noundef %25, i64 noundef 16) #8
  %27 = icmp eq i32 %26, 0
  br i1 %27, label %28, label %30

28:                                               ; preds = %19
  %29 = load ptr, ptr %8, align 8
  store ptr %29, ptr %4, align 8
  br label %42

30:                                               ; preds = %19
  br label %31

31:                                               ; preds = %30
  %32 = load ptr, ptr %9, align 8
  %33 = icmp ne ptr %32, null
  br i1 %33, label %34, label %38

34:                                               ; preds = %31
  %35 = load ptr, ptr %9, align 8
  %36 = getelementptr inbounds %struct._GList, ptr %35, i32 0, i32 1
  %37 = load ptr, ptr %36, align 8
  br label %39

38:                                               ; preds = %31
  br label %39

39:                                               ; preds = %38, %34
  %40 = phi ptr [ %37, %34 ], [ null, %38 ]
  store ptr %40, ptr %9, align 8
  br label %16, !llvm.loop !4

41:                                               ; preds = %16
  store ptr null, ptr %4, align 8
  br label %42

42:                                               ; preds = %41, %28, %13
  %43 = load ptr, ptr %4, align 8
  ret ptr %43
}