; Function Attrs: nofree nounwind memory(read, inaccessiblemem: none) uwtable
define ptr @dcom_interface_find(ptr noundef readnone captures(none) %0, ptr noundef readnone captures(none) %1, ptr noundef readonly captures(none) %2) local_unnamed_addr #0 {
  %bcmp = tail call i32 @bcmp(ptr noundef nonnull dereferenceable(16) %2, ptr noundef nonnull dereferenceable(16) @uuid_null, i64 16)
  %4 = icmp eq i32 %bcmp, 0
  %.011 = load ptr, ptr @dcom_interfaces, align 8
  %.not12 = icmp eq ptr %.011, null
  %or.cond = select i1 %4, i1 true, i1 %.not12
  br i1 %or.cond, label %.loopexit, label %.lr.ph

5:                                                ; preds = %.lr.ph
  %6 = getelementptr inbounds nuw i8, ptr %.013, i64 8
  %.0 = load ptr, ptr %6, align 8
  %.not = icmp eq ptr %.0, null
  br i1 %.not, label %.loopexit, label %.lr.ph, !llvm.loop !4

.lr.ph:                                           ; preds = %3, %5
  %.013 = phi ptr [ %.0, %5 ], [ %.011, %3 ]
  %7 = load ptr, ptr %.013, align 8
  %8 = getelementptr inbounds nuw i8, ptr %7, i64 36
  %bcmp10 = tail call i32 @bcmp(ptr noundef nonnull dereferenceable(16) %8, ptr noundef nonnull dereferenceable(16) %2, i64 16)
  %9 = icmp eq i32 %bcmp10, 0
  br i1 %9, label %.loopexit, label %5

.loopexit:                                        ; preds = %.lr.ph, %5, %3
  %.09 = phi ptr [ null, %3 ], [ %7, %.lr.ph ], [ null, %5 ]
  ret ptr %.09
}